target datalayout = "e-m:e-p270:32:32-p271:32:32-p272:64:64-i64:64-i128:128-f80:128-n8:16:32:64-S128"
target triple = "x86_64-pc-linux-gnu"

%struct.quic_conn_id_st = type { i8, [20 x i8] }
%union.bio_addr_st = type { %struct.sockaddr_in6, [84 x i8] }
%struct.sockaddr_in6 = type { i16, i16, i32, %struct.in6_addr, i32 }
%struct.in6_addr = type { %union.anon }
%union.anon = type { [4 x i32] }
%struct.OSSL_TIME = type { i64 }
%struct.quic_channel_st = type { ptr, %struct.anon, %struct.anon.0, ptr, ptr, ptr, ptr, ptr, ptr, ptr, i64, %union.bio_addr_st, ptr, ptr, ptr, %struct.quic_txfc_st, %struct.quic_rxfc_st, [3 x %struct.quic_rxfc_st], %struct.quic_rxfc_st, %struct.quic_rxfc_st, %struct.quic_stream_map_st, %struct.ossl_statm_st, ptr, ptr, ptr, ptr, ptr, ptr, ptr, ptr, [3 x ptr], [3 x ptr], %struct.quic_conn_id_st, %struct.quic_conn_id_st, %struct.quic_conn_id_st, %struct.quic_conn_id_st, %struct.quic_conn_id_st, %struct.quic_conn_id_st, i64, i64, i64, i64, i64, i64, i64, i64, i64, i64, i8, i16, ptr, i64, i64, i64, i64, i64, i64, i64, i64, i64, i64, i64, i64, i64, %struct.quic_terminate_cause_st, %struct.OSSL_TIME, %struct.OSSL_TIME, %struct.OSSL_TIME, %struct.OSSL_TIME, %struct.OSSL_TIME, i64, i64, i64, ptr, ptr, i64, ptr }
%struct.anon = type { ptr, ptr }
%struct.anon.0 = type { ptr, ptr }
%struct.quic_txfc_st = type { ptr, i64, i64, i8 }
%struct.quic_rxfc_st = type { i64, i64, i64, i64, i64, i64, i64, %struct.OSSL_TIME, ptr, ptr, ptr, i8, i8, i8, i8 }
%struct.quic_stream_map_st = type { ptr, %struct.quic_stream_list_node_st, %struct.quic_stream_list_node_st, %struct.quic_stream_list_node_st, i64, i64, i64, i64, i64, ptr, ptr, ptr, ptr, ptr, i32 }
%struct.quic_stream_list_node_st = type { ptr, ptr }
%struct.ossl_statm_st = type { %struct.OSSL_TIME, %struct.OSSL_TIME, %struct.OSSL_TIME, %struct.OSSL_TIME, i8 }
%struct.quic_terminate_cause_st = type { i64, i64, ptr, i64, i8 }

; Function Attrs: nounwind uwtable
define i32 @ossl_quic_bind_channel(ptr noundef %0, ptr noundef %1, ptr noundef %2, ptr noundef %3, ptr noundef %4) #0 {
  %6 = alloca i32, align 4
  %7 = alloca ptr, align 8
  %8 = alloca ptr, align 8
  %9 = alloca ptr, align 8
  %10 = alloca ptr, align 8
  %11 = alloca ptr, align 8
  store ptr %0, ptr %7, align 8, !tbaa !3
  store ptr %1, ptr %8, align 8, !tbaa !173
  store ptr %2, ptr %9, align 8, !tbaa !215
  store ptr %3, ptr %10, align 8, !tbaa !215
  store ptr %4, ptr %11, align 8, !tbaa !215
  %12 = load ptr, ptr %10, align 8, !tbaa !215
  %13 = icmp eq ptr %12, null
  br i1 %13, label %14, label %15

14:                                               ; preds = %5
  store i32 0, ptr %6, align 4
  br label %60

15:                                               ; preds = %5
  %16 = load ptr, ptr %7, align 8, !tbaa !3
  %17 = getelementptr inbounds nuw %struct.quic_channel_st, ptr %16, i32 0, i32 72
  %18 = load i64, ptr %17, align 8
  %19 = and i64 %18, 7
  %20 = trunc i64 %19 to i32
  %21 = icmp eq i32 %20, 0
  br i1 %21, label %22, label %30

22:                                               ; preds = %15
  %23 = load ptr, ptr %7, align 8, !tbaa !3
  %24 = getelementptr inbounds nuw %struct.quic_channel_st, ptr %23, i32 0, i32 72
  %25 = load i64, ptr %24, align 8
  %26 = lshr i64 %25, 25
  %27 = and i64 %26, 1
  %28 = trunc i64 %27 to i32
  %29 = icmp ne i32 %28, 0
  br label %30

30:                                               ; preds = %22, %15
  %31 = phi i1 [ false, %15 ], [ %29, %22 ]
  %32 = zext i1 %31 to i32
  %33 = icmp ne i32 %32, 0
  %34 = xor i1 %33, true
  %35 = xor i1 %34, true
  %36 = zext i1 %35 to i32
  %37 = sext i32 %36 to i64
  %38 = call i64 @llvm.expect.i64(i64 %37, i64 1)
  %39 = icmp ne i64 %38, 0
  br i1 %39, label %41, label %40

40:                                               ; preds = %30
  store i32 0, ptr %6, align 4
  br label %60

41:                                               ; preds = %30
  %42 = load ptr, ptr %7, align 8, !tbaa !3
  %43 = getelementptr inbounds nuw %struct.quic_channel_st, ptr %42, i32 0, i32 36
  %44 = load ptr, ptr %10, align 8, !tbaa !215
  call void @llvm.memcpy.p0.p0.i64(ptr align 4 %43, ptr align 1 %44, i64 21, i1 false), !tbaa.struct !88
  %45 = load ptr, ptr %7, align 8, !tbaa !3
  %46 = getelementptr inbounds nuw %struct.quic_channel_st, ptr %45, i32 0, i32 5
  %47 = load ptr, ptr %46, align 8, !tbaa !45
  %48 = load ptr, ptr %7, align 8, !tbaa !3
  %49 = load ptr, ptr %10, align 8, !tbaa !215
  %50 = call i32 @ossl_quic_lcidm_bind_channel(ptr noundef %47, ptr noundef %48, ptr noundef %49)
  %51 = icmp ne i32 %50, 0
  br i1 %51, label %53, label %52

52:                                               ; preds = %41
  store i32 0, ptr %6, align 4
  br label %60

53:                                               ; preds = %41
  %54 = load ptr, ptr %7, align 8, !tbaa !3
  %55 = load ptr, ptr %8, align 8, !tbaa !173
  %56 = load ptr, ptr %9, align 8, !tbaa !215
  %57 = load ptr, ptr %10, align 8, !tbaa !215
  %58 = load ptr, ptr %11, align 8, !tbaa !215
  %59 = call i32 @ch_on_new_conn_common(ptr noundef %54, ptr noundef %55, ptr noundef %56, ptr noundef %57, ptr noundef %58)
  store i32 %59, ptr %6, align 4
  br label %60

60:                                               ; preds = %53, %52, %40, %14
  %61 = load i32, ptr %6, align 4
  ret i32 %61
}