; Function Attrs: nounwind uwtable
define range(i32 0, 2) i32 @ossl_quic_bind_channel(ptr noundef %0, ptr noundef readonly captures(none) %1, ptr noundef readonly captures(none) %2, ptr noundef %3, ptr noundef %4) local_unnamed_addr #0 {
  %6 = icmp eq ptr %3, null
  br i1 %6, label %19, label %7

7:                                                ; preds = %5
  %8 = getelementptr inbounds nuw i8, ptr %0, i64 1568
  %9 = load i64, ptr %8, align 8
  %10 = and i64 %9, 33554439
  %11 = icmp eq i64 %10, 33554432
  br i1 %11, label %12, label %19, !prof !245

12:                                               ; preds = %7
  %13 = getelementptr inbounds nuw i8, ptr %0, i64 1228
  tail call void @llvm.memcpy.p0.p0.i64(ptr noundef nonnull align 4 dereferenceable(21) %13, ptr noundef nonnull align 1 dereferenceable(21) %3, i64 21, i1 false), !tbaa.struct !85
  %14 = getelementptr inbounds nuw i8, ptr %0, i64 56
  %15 = load ptr, ptr %14, align 8, !tbaa !44
  %16 = tail call i32 @ossl_quic_lcidm_bind_channel(ptr noundef %15, ptr noundef nonnull %0, ptr noundef nonnull %3) #15
  %.not = icmp eq i32 %16, 0
  br i1 %.not, label %19, label %17

17:                                               ; preds = %12
  %18 = tail call fastcc i32 @ch_on_new_conn_common(ptr noundef nonnull %0, ptr noundef %1, ptr noundef %2, ptr noundef nonnull %3, ptr noundef %4)
  br label %19

19:                                               ; preds = %12, %7, %5, %17
  %.0 = phi i32 [ %18, %17 ], [ 0, %5 ], [ 0, %7 ], [ 0, %12 ]
  ret i32 %.0
}